target datalayout = "e-m:e-p270:32:32-p271:32:32-p272:64:64-i64:64-i128:128-f80:128-n8:16:32:64-S128"
target triple = "x86_64-pc-linux-gnu"

@hf_mac_addr = internal global i32 0, align 4
@hf_link_addr_type = internal global i32 0, align 4
@hf_link_transport_addr_type = internal global i32 0, align 4
@hf_link_addr_string = internal global i32 0, align 4
@hf_cell_id = internal global i32 0, align 4
@hf_ci = internal global i32 0, align 4
@hf_plmn_id = internal global i32 0, align 4
@hf_location_area_id = internal global i32 0, align 4

; Function Attrs: null_pointer_is_valid sspstrong uwtable
define internal signext i16 @dissect_link_addr(ptr noundef %0, i16 noundef signext %1, ptr noundef %2) #0 {
  %4 = alloca i16, align 2
  %5 = alloca ptr, align 8
  %6 = alloca i16, align 2
  %7 = alloca ptr, align 8
  %8 = alloca i8, align 1
  %9 = alloca i8, align 1
  %10 = alloca i32, align 4
  store ptr %0, ptr %5, align 8
  store i16 %1, ptr %6, align 2
  store ptr %2, ptr %7, align 8
  call void @llvm.lifetime.start.p0(i64 1, ptr %8) #5
  %11 = load ptr, ptr %5, align 8
  %12 = load i16, ptr %6, align 2
  %13 = sext i16 %12 to i32
  %14 = call zeroext i8 @tvb_get_uint8(ptr noundef %11, i32 noundef %13)
  store i8 %14, ptr %8, align 1
  call void @llvm.lifetime.start.p0(i64 1, ptr %9) #5
  store i8 0, ptr %9, align 1
  %15 = load ptr, ptr %7, align 8
  %16 = load i32, ptr @hf_link_addr_type, align 4
  %17 = load ptr, ptr %5, align 8
  %18 = load i16, ptr %6, align 2
  %19 = sext i16 %18 to i32
  %20 = call ptr @proto_tree_add_item(ptr noundef %15, i32 noundef %16, ptr noundef %17, i32 noundef %19, i32 noundef 1, i32 noundef 0)
  %21 = load i8, ptr %8, align 1
  %22 = zext i8 %21 to i32
  switch i32 %22, label %124 [
    i32 0, label %23
    i32 1, label %57
    i32 2, label %76
    i32 3, label %102
    i32 4, label %102
    i32 5, label %102
  ]

23:                                               ; preds = %3
  %24 = load ptr, ptr %7, align 8
  %25 = load i32, ptr @hf_link_transport_addr_type, align 4
  %26 = load ptr, ptr %5, align 8
  %27 = load i16, ptr %6, align 2
  %28 = sext i16 %27 to i32
  %29 = add i32 %28, 1
  %30 = call ptr @proto_tree_add_item(ptr noundef %24, i32 noundef %25, ptr noundef %26, i32 noundef %29, i32 noundef 2, i32 noundef 0)
  %31 = load ptr, ptr %5, align 8
  %32 = load i16, ptr %6, align 2
  %33 = sext i16 %32 to i32
  %34 = add i32 %33, 1
  %35 = call zeroext i16 @tvb_get_ntohs(ptr noundef %31, i32 noundef %34)
  %36 = zext i16 %35 to i32
  %37 = icmp eq i32 %36, 6
  br i1 %37, label %38, label %52

38:                                               ; preds = %23
  %39 = load ptr, ptr %7, align 8
  %40 = load i32, ptr @hf_mac_addr, align 4
  %41 = load ptr, ptr %5, align 8
  %42 = load i16, ptr %6, align 2
  %43 = sext i16 %42 to i32
  %44 = add i32 %43, 4
  %45 = load ptr, ptr %5, align 8
  %46 = load i16, ptr %6, align 2
  %47 = sext i16 %46 to i32
  %48 = add i32 %47, 3
  %49 = call zeroext i8 @tvb_get_uint8(ptr noundef %45, i32 noundef %48)
  %50 = zext i8 %49 to i32
  %51 = call ptr @proto_tree_add_item(ptr noundef %39, i32 noundef %40, ptr noundef %41, i32 noundef %44, i32 noundef %50, i32 noundef 0)
  br label %52

52:                                               ; preds = %38, %23
  %53 = load i16, ptr %6, align 2
  %54 = sext i16 %53 to i32
  %55 = add i32 %54, 10
  %56 = trunc i32 %55 to i16
  store i16 %56, ptr %4, align 2
  store i32 1, ptr %10, align 4
  br label %125

57:                                               ; preds = %3
  %58 = load ptr, ptr %7, align 8
  %59 = load i32, ptr @hf_plmn_id, align 4
  %60 = load ptr, ptr %5, align 8
  %61 = load i16, ptr %6, align 2
  %62 = sext i16 %61 to i32
  %63 = add i32 %62, 1
  %64 = call ptr @proto_tree_add_item(ptr noundef %58, i32 noundef %59, ptr noundef %60, i32 noundef %63, i32 noundef 3, i32 noundef 0)
  %65 = load ptr, ptr %7, align 8
  %66 = load i32, ptr @hf_cell_id, align 4
  %67 = load ptr, ptr %5, align 8
  %68 = load i16, ptr %6, align 2
  %69 = sext i16 %68 to i32
  %70 = add i32 %69, 4
  %71 = call ptr @proto_tree_add_item(ptr noundef %65, i32 noundef %66, ptr noundef %67, i32 noundef %70, i32 noundef 4, i32 noundef 0)
  %72 = load i16, ptr %6, align 2
  %73 = sext i16 %72 to i32
  %74 = add i32 %73, 8
  %75 = trunc i32 %74 to i16
  store i16 %75, ptr %4, align 2
  store i32 1, ptr %10, align 4
  br label %125

76:                                               ; preds = %3
  %77 = load ptr, ptr %7, align 8
  %78 = load i32, ptr @hf_plmn_id, align 4
  %79 = load ptr, ptr %5, align 8
  %80 = load i16, ptr %6, align 2
  %81 = sext i16 %80 to i32
  %82 = add i32 %81, 1
  %83 = call ptr @proto_tree_add_item(ptr noundef %77, i32 noundef %78, ptr noundef %79, i32 noundef %82, i32 noundef 3, i32 noundef 0)
  %84 = load ptr, ptr %7, align 8
  %85 = load i32, ptr @hf_location_area_id, align 4
  %86 = load ptr, ptr %5, align 8
  %87 = load i16, ptr %6, align 2
  %88 = sext i16 %87 to i32
  %89 = add i32 %88, 4
  %90 = call ptr @proto_tree_add_item(ptr noundef %84, i32 noundef %85, ptr noundef %86, i32 noundef %89, i32 noundef 2, i32 noundef 0)
  %91 = load ptr, ptr %7, align 8
  %92 = load i32, ptr @hf_ci, align 4
  %93 = load ptr, ptr %5, align 8
  %94 = load i16, ptr %6, align 2
  %95 = sext i16 %94 to i32
  %96 = add i32 %95, 6
  %97 = call ptr @proto_tree_add_item(ptr noundef %91, i32 noundef %92, ptr noundef %93, i32 noundef %96, i32 noundef 2, i32 noundef 0)
  %98 = load i16, ptr %6, align 2
  %99 = sext i16 %98 to i32
  %100 = add i32 %99, 8
  %101 = trunc i32 %100 to i16
  store i16 %101, ptr %4, align 2
  store i32 1, ptr %10, align 4
  br label %125

102:                                              ; preds = %3, %3, %3
  %103 = load ptr, ptr %5, align 8
  %104 = load i16, ptr %6, align 2
  %105 = sext i16 %104 to i32
  %106 = add i32 %105, 1
  %107 = call zeroext i8 @tvb_get_uint8(ptr noundef %103, i32 noundef %106)
  store i8 %107, ptr %9, align 1
  %108 = load ptr, ptr %7, align 8
  %109 = load i32, ptr @hf_link_addr_string, align 4
  %110 = load ptr, ptr %5, align 8
  %111 = load i16, ptr %6, align 2
  %112 = sext i16 %111 to i32
  %113 = add i32 %112, 2
  %114 = load i8, ptr %9, align 1
  %115 = zext i8 %114 to i32
  %116 = call ptr @proto_tree_add_item(ptr noundef %108, i32 noundef %109, ptr noundef %110, i32 noundef %113, i32 noundef %115, i32 noundef 0)
  %117 = load i16, ptr %6, align 2
  %118 = sext i16 %117 to i32
  %119 = add i32 %118, 2
  %120 = load i8, ptr %9, align 1
  %121 = zext i8 %120 to i32
  %122 = add i32 %119, %121
  %123 = trunc i32 %122 to i16
  store i16 %123, ptr %4, align 2
  store i32 1, ptr %10, align 4
  br label %125

124:                                              ; preds = %3
  store i16 0, ptr %4, align 2
  store i32 1, ptr %10, align 4
  br label %125

125:                                              ; preds = %124, %102, %76, %57, %52
  call void @llvm.lifetime.end.p0(i64 1, ptr %9) #5
  call void @llvm.lifetime.end.p0(i64 1, ptr %8) #5
  %126 = load i16, ptr %4, align 2
  ret i16 %126
}