; Function Attrs: null_pointer_is_valid sspstrong uwtable
define internal fastcc signext i16 @dissect_link_addr(ptr noundef %0, i16 noundef signext %1, ptr noundef %2) unnamed_addr #0 {
  %4 = sext i16 %1 to i32
  %5 = tail call zeroext i8 @tvb_get_uint8(ptr noundef %0, i32 noundef %4)
  %6 = load i32, ptr @hf_link_addr_type, align 4
  %7 = tail call ptr @proto_tree_add_item(ptr noundef %2, i32 noundef %6, ptr noundef %0, i32 noundef %4, i32 noundef 1, i32 noundef 0)
  switch i8 %5, label %51 [
    i8 0, label %8
    i8 1, label %23
    i8 2, label %31
    i8 3, label %42
    i8 4, label %42
    i8 5, label %42
  ]

8:                                                ; preds = %3
  %9 = load i32, ptr @hf_link_transport_addr_type, align 4
  %10 = add nsw i32 %4, 1
  %11 = tail call ptr @proto_tree_add_item(ptr noundef %2, i32 noundef %9, ptr noundef %0, i32 noundef %10, i32 noundef 2, i32 noundef 0)
  %12 = tail call zeroext i16 @tvb_get_ntohs(ptr noundef %0, i32 noundef %10)
  %13 = icmp eq i16 %12, 6
  br i1 %13, label %14, label %21

14:                                               ; preds = %8
  %15 = load i32, ptr @hf_mac_addr, align 4
  %16 = add nsw i32 %4, 4
  %17 = add nsw i32 %4, 3
  %18 = tail call zeroext i8 @tvb_get_uint8(ptr noundef %0, i32 noundef %17)
  %19 = zext i8 %18 to i32
  %20 = tail call ptr @proto_tree_add_item(ptr noundef %2, i32 noundef %15, ptr noundef %0, i32 noundef %16, i32 noundef %19, i32 noundef 0)
  br label %21

21:                                               ; preds = %14, %8
  %22 = add i16 %1, 10
  br label %51

23:                                               ; preds = %3
  %24 = load i32, ptr @hf_plmn_id, align 4
  %25 = add nsw i32 %4, 1
  %26 = tail call ptr @proto_tree_add_item(ptr noundef %2, i32 noundef %24, ptr noundef %0, i32 noundef %25, i32 noundef 3, i32 noundef 0)
  %27 = load i32, ptr @hf_cell_id, align 4
  %28 = add nsw i32 %4, 4
  %29 = tail call ptr @proto_tree_add_item(ptr noundef %2, i32 noundef %27, ptr noundef %0, i32 noundef %28, i32 noundef 4, i32 noundef 0)
  %30 = add i16 %1, 8
  br label %51

31:                                               ; preds = %3
  %32 = load i32, ptr @hf_plmn_id, align 4
  %33 = add nsw i32 %4, 1
  %34 = tail call ptr @proto_tree_add_item(ptr noundef %2, i32 noundef %32, ptr noundef %0, i32 noundef %33, i32 noundef 3, i32 noundef 0)
  %35 = load i32, ptr @hf_location_area_id, align 4
  %36 = add nsw i32 %4, 4
  %37 = tail call ptr @proto_tree_add_item(ptr noundef %2, i32 noundef %35, ptr noundef %0, i32 noundef %36, i32 noundef 2, i32 noundef 0)
  %38 = load i32, ptr @hf_ci, align 4
  %39 = add nsw i32 %4, 6
  %40 = tail call ptr @proto_tree_add_item(ptr noundef %2, i32 noundef %38, ptr noundef %0, i32 noundef %39, i32 noundef 2, i32 noundef 0)
  %41 = add i16 %1, 8
  br label %51

42:                                               ; preds = %3, %3, %3
  %43 = add nsw i32 %4, 1
  %44 = tail call zeroext i8 @tvb_get_uint8(ptr noundef %0, i32 noundef %43)
  %45 = load i32, ptr @hf_link_addr_string, align 4
  %46 = add nsw i32 %4, 2
  %47 = zext i8 %44 to i32
  %48 = tail call ptr @proto_tree_add_item(ptr noundef %2, i32 noundef %45, ptr noundef %0, i32 noundef %46, i32 noundef %47, i32 noundef 0)
  %49 = add nsw i32 %46, %47
  %50 = trunc i32 %49 to i16
  br label %51

51:                                               ; preds = %3, %42, %31, %23, %21
  %.0 = phi i16 [ %50, %42 ], [ %41, %31 ], [ %30, %23 ], [ %22, %21 ], [ 0, %3 ]
  ret i16 %.0
}